; Function Attrs: nofree norecurse nosync nounwind memory(read, argmem: none, inaccessiblemem: none) uwtable
define dso_local range(i32 0, 2) i32 @ldbIsBreakpoint(i32 noundef %0) local_unnamed_addr #14 {
  %2 = load i32, ptr getelementptr inbounds nuw (i8, ptr @ldb, i64 296), align 8, !tbaa !140
  %3 = icmp sgt i32 %2, 0
  br i1 %3, label %.lr.ph.preheader, label %._crit_edge

.lr.ph.preheader:                                 ; preds = %1
  %wide.trip.count = zext nneg i32 %2 to i64
  br label %.lr.ph

4:                                                ; preds = %.lr.ph
  %indvars.iv.next = add nuw nsw i64 %indvars.iv, 1
  %exitcond.not = icmp eq i64 %indvars.iv.next, %wide.trip.count
  br i1 %exitcond.not, label %._crit_edge, label %.lr.ph, !llvm.loop !154

.lr.ph:                                           ; preds = %.lr.ph.preheader, %4
  %indvars.iv = phi i64 [ 0, %.lr.ph.preheader ], [ %indvars.iv.next, %4 ]
  %5 = getelementptr inbounds nuw [64 x i32], ptr getelementptr inbounds nuw (i8, ptr @ldb, i64 40), i64 0, i64 %indvars.iv
  %6 = load i32, ptr %5, align 4, !tbaa !91
  %7 = icmp eq i32 %6, %0
  br i1 %7, label %._crit_edge, label %4

._crit_edge:                                      ; preds = %.lr.ph, %4, %1
  %.05 = phi i32 [ 0, %1 ], [ 0, %4 ], [ 1, %.lr.ph ]
  ret i32 %.05
}